target datalayout = "e-m:e-p270:32:32-p271:32:32-p272:64:64-i64:64-i128:128-f80:128-n8:16:32:64-S128"
target triple = "x86_64-pc-linux-gnu"

%struct._OGLSDOps = type { %struct._SurfaceDataOps, ptr, ptr, i32, i32, i8, i8, i32, i32, i32, i32, i32, i32, i32, i32, i32, i32, i32 }
%struct._SurfaceDataOps = type { ptr, ptr, ptr, ptr, ptr, ptr, ptr }

@j2d_glBindTexture = external global ptr, align 8
@.str.20 = private unnamed_addr constant [38 x i8] c"OGLSD_InitTextureObject: ops are null\00", align 1
@j2d_glGetIntegerv = external global ptr, align 8
@.str.21 = private unnamed_addr constant [54 x i8] c"OGLSD_InitTextureObject: texture dimensions too large\00", align 1
@j2d_glTexImage2D = external global ptr, align 8
@j2d_glGetTexLevelParameteriv = external global ptr, align 8
@.str.22 = private unnamed_addr constant [57 x i8] c"OGLSD_InitTextureObject: actual (w=%d h=%d) != requested\00", align 1
@j2d_glGenTextures = external global ptr, align 8
@j2d_glTexParameteri = external global ptr, align 8

; Function Attrs: nounwind uwtable
define hidden i32 @OGLSD_NextPowerOfTwo(i32 noundef %0, i32 noundef %1) #0 {
  %3 = alloca i32, align 4
  %4 = alloca i32, align 4
  %5 = alloca i32, align 4
  %6 = alloca i32, align 4
  store i32 %0, ptr %4, align 4
  store i32 %1, ptr %5, align 4
  %7 = load i32, ptr %4, align 4
  %8 = load i32, ptr %5, align 4
  %9 = icmp sgt i32 %7, %8
  br i1 %9, label %10, label %11

10:                                               ; preds = %2
  store i32 0, ptr %3, align 4
  br label %22

11:                                               ; preds = %2
  store i32 1, ptr %6, align 4
  br label %12

12:                                               ; preds = %17, %11
  %13 = load i32, ptr %6, align 4
  %14 = load i32, ptr %4, align 4
  %15 = icmp slt i32 %13, %14
  br i1 %15, label %16, label %20

16:                                               ; preds = %12
  br label %17

17:                                               ; preds = %16
  %18 = load i32, ptr %6, align 4
  %19 = mul nsw i32 %18, 2
  store i32 %19, ptr %6, align 4
  br label %12, !llvm.loop !6

20:                                               ; preds = %12
  %21 = load i32, ptr %6, align 4
  store i32 %21, ptr %3, align 4
  br label %22

22:                                               ; preds = %20, %10
  %23 = load i32, ptr %3, align 4
  ret i32 %23
}

; Function Attrs: nounwind uwtable
define internal zeroext i8 @OGLSD_InitTextureObject(ptr noundef %0, i8 noundef zeroext %1, i8 noundef zeroext %2, i8 noundef zeroext %3, i32 noundef %4, i32 noundef %5) #0 {
  %7 = alloca i8, align 1
  %8 = alloca ptr, align 8
  %9 = alloca i8, align 1
  %10 = alloca i8, align 1
  %11 = alloca i8, align 1
  %12 = alloca i32, align 4
  %13 = alloca i32, align 4
  %14 = alloca i32, align 4
  %15 = alloca i32, align 4
  %16 = alloca i32, align 4
  %17 = alloca i32, align 4
  %18 = alloca i32, align 4
  %19 = alloca i32, align 4
  %20 = alloca i32, align 4
  %21 = alloca i32, align 4
  %22 = alloca i32, align 4
  %23 = alloca i32, align 4
  store ptr %0, ptr %8, align 8
  store i8 %1, ptr %9, align 1
  store i8 %2, ptr %10, align 1
  store i8 %3, ptr %11, align 1
  store i32 %4, ptr %12, align 4
  store i32 %5, ptr %13, align 4
  store i32 6408, ptr %16, align 4
  store i32 32821, ptr %17, align 4
  %24 = load ptr, ptr %8, align 8
  %25 = icmp eq ptr %24, null
  br i1 %25, label %26, label %27

26:                                               ; preds = %6
  call void (i32, i8, ptr, ...) @J2dTraceImpl(i32 noundef 1, i8 noundef zeroext 1, ptr noundef @.str.20)
  store i8 0, ptr %7, align 1
  br label %162

27:                                               ; preds = %6
  %28 = load i8, ptr %10, align 1
  %29 = icmp ne i8 %28, 0
  br i1 %29, label %30, label %48

30:                                               ; preds = %27
  %31 = load ptr, ptr @j2d_glGetIntegerv, align 8
  call void %31(i32 noundef 3379, ptr noundef %23)
  %32 = load i32, ptr %12, align 4
  %33 = load i32, ptr %23, align 4
  %34 = icmp sle i32 %32, %33
  br i1 %34, label %35, label %37

35:                                               ; preds = %30
  %36 = load i32, ptr %12, align 4
  br label %38

37:                                               ; preds = %30
  br label %38

38:                                               ; preds = %37, %35
  %39 = phi i32 [ %36, %35 ], [ 0, %37 ]
  store i32 %39, ptr %19, align 4
  %40 = load i32, ptr %13, align 4
  %41 = load i32, ptr %23, align 4
  %42 = icmp sle i32 %40, %41
  br i1 %42, label %43, label %45

43:                                               ; preds = %38
  %44 = load i32, ptr %13, align 4
  br label %46

45:                                               ; preds = %38
  br label %46

46:                                               ; preds = %45, %43
  %47 = phi i32 [ %44, %43 ], [ 0, %45 ]
  store i32 %47, ptr %20, align 4
  store i32 3553, ptr %14, align 4
  store i32 32868, ptr %15, align 4
  br label %78

48:                                               ; preds = %27
  %49 = load i8, ptr %11, align 1
  %50 = icmp ne i8 %49, 0
  br i1 %50, label %51, label %69

51:                                               ; preds = %48
  %52 = load ptr, ptr @j2d_glGetIntegerv, align 8
  call void %52(i32 noundef 34040, ptr noundef %23)
  %53 = load i32, ptr %12, align 4
  %54 = load i32, ptr %23, align 4
  %55 = icmp sle i32 %53, %54
  br i1 %55, label %56, label %58

56:                                               ; preds = %51
  %57 = load i32, ptr %12, align 4
  br label %59

58:                                               ; preds = %51
  br label %59

59:                                               ; preds = %58, %56
  %60 = phi i32 [ %57, %56 ], [ 0, %58 ]
  store i32 %60, ptr %19, align 4
  %61 = load i32, ptr %13, align 4
  %62 = load i32, ptr %23, align 4
  %63 = icmp sle i32 %61, %62
  br i1 %63, label %64, label %66

64:                                               ; preds = %59
  %65 = load i32, ptr %13, align 4
  br label %67

66:                                               ; preds = %59
  br label %67

67:                                               ; preds = %66, %64
  %68 = phi i32 [ %65, %64 ], [ 0, %66 ]
  store i32 %68, ptr %20, align 4
  store i32 34037, ptr %14, align 4
  store i32 34039, ptr %15, align 4
  br label %77

69:                                               ; preds = %48
  %70 = load ptr, ptr @j2d_glGetIntegerv, align 8
  call void %70(i32 noundef 3379, ptr noundef %23)
  %71 = load i32, ptr %12, align 4
  %72 = load i32, ptr %23, align 4
  %73 = call i32 @OGLSD_NextPowerOfTwo(i32 noundef %71, i32 noundef %72)
  store i32 %73, ptr %19, align 4
  %74 = load i32, ptr %13, align 4
  %75 = load i32, ptr %23, align 4
  %76 = call i32 @OGLSD_NextPowerOfTwo(i32 noundef %74, i32 noundef %75)
  store i32 %76, ptr %20, align 4
  store i32 3553, ptr %14, align 4
  store i32 32868, ptr %15, align 4
  br label %77

77:                                               ; preds = %69, %67
  br label %78

78:                                               ; preds = %77, %46
  %79 = load i32, ptr %19, align 4
  %80 = icmp eq i32 %79, 0
  br i1 %80, label %84, label %81

81:                                               ; preds = %78
  %82 = load i32, ptr %20, align 4
  %83 = icmp eq i32 %82, 0
  br i1 %83, label %84, label %85

84:                                               ; preds = %81, %78
  call void (i32, i8, ptr, ...) @J2dTraceImpl(i32 noundef 1, i8 noundef zeroext 1, ptr noundef @.str.21)
  store i8 0, ptr %7, align 1
  br label %162

85:                                               ; preds = %81
  %86 = load ptr, ptr @j2d_glTexImage2D, align 8
  %87 = load i32, ptr %15, align 4
  %88 = load i32, ptr %16, align 4
  %89 = load i32, ptr %19, align 4
  %90 = load i32, ptr %20, align 4
  %91 = load i32, ptr %16, align 4
  %92 = load i32, ptr %17, align 4
  call void %86(i32 noundef %87, i32 noundef 0, i32 noundef %88, i32 noundef %89, i32 noundef %90, i32 noundef 0, i32 noundef %91, i32 noundef %92, ptr noundef null)
  %93 = load ptr, ptr @j2d_glGetTexLevelParameteriv, align 8
  %94 = load i32, ptr %15, align 4
  call void %93(i32 noundef %94, i32 noundef 0, i32 noundef 4096, ptr noundef %21)
  %95 = load ptr, ptr @j2d_glGetTexLevelParameteriv, align 8
  %96 = load i32, ptr %15, align 4
  call void %95(i32 noundef %96, i32 noundef 0, i32 noundef 4097, ptr noundef %22)
  %97 = load i32, ptr %21, align 4
  %98 = load i32, ptr %19, align 4
  %99 = icmp ne i32 %97, %98
  br i1 %99, label %104, label %100

100:                                              ; preds = %85
  %101 = load i32, ptr %22, align 4
  %102 = load i32, ptr %20, align 4
  %103 = icmp ne i32 %101, %102
  br i1 %103, label %104, label %107

104:                                              ; preds = %100, %85
  %105 = load i32, ptr %21, align 4
  %106 = load i32, ptr %22, align 4
  call void (i32, i8, ptr, ...) @J2dTraceImpl(i32 noundef 1, i8 noundef zeroext 1, ptr noundef @.str.22, i32 noundef %105, i32 noundef %106)
  store i8 0, ptr %7, align 1
  br label %162

107:                                              ; preds = %100
  %108 = load ptr, ptr @j2d_glGenTextures, align 8
  call void %108(i32 noundef 1, ptr noundef %18)
  %109 = load ptr, ptr @j2d_glBindTexture, align 8
  %110 = load i32, ptr %14, align 4
  %111 = load i32, ptr %18, align 4
  call void %109(i32 noundef %110, i32 noundef %111)
  %112 = load ptr, ptr @j2d_glTexImage2D, align 8
  %113 = load i32, ptr %14, align 4
  %114 = load i32, ptr %16, align 4
  %115 = load i32, ptr %19, align 4
  %116 = load i32, ptr %20, align 4
  %117 = load i32, ptr %16, align 4
  %118 = load i32, ptr %17, align 4
  call void %112(i32 noundef %113, i32 noundef 0, i32 noundef %114, i32 noundef %115, i32 noundef %116, i32 noundef 0, i32 noundef %117, i32 noundef %118, ptr noundef null)
  %119 = load i8, ptr %9, align 1
  %120 = load ptr, ptr %8, align 8
  %121 = getelementptr inbounds %struct._OGLSDOps, ptr %120, i32 0, i32 5
  store i8 %119, ptr %121, align 8
  %122 = load ptr, ptr %8, align 8
  %123 = getelementptr inbounds %struct._OGLSDOps, ptr %122, i32 0, i32 7
  store i32 0, ptr %123, align 4
  %124 = load ptr, ptr %8, align 8
  %125 = getelementptr inbounds %struct._OGLSDOps, ptr %124, i32 0, i32 8
  store i32 0, ptr %125, align 8
  %126 = load i32, ptr %12, align 4
  %127 = load ptr, ptr %8, align 8
  %128 = getelementptr inbounds %struct._OGLSDOps, ptr %127, i32 0, i32 9
  store i32 %126, ptr %128, align 4
  %129 = load i32, ptr %13, align 4
  %130 = load ptr, ptr %8, align 8
  %131 = getelementptr inbounds %struct._OGLSDOps, ptr %130, i32 0, i32 10
  store i32 %129, ptr %131, align 8
  %132 = load i32, ptr %18, align 4
  %133 = load ptr, ptr %8, align 8
  %134 = getelementptr inbounds %struct._OGLSDOps, ptr %133, i32 0, i32 11
  store i32 %132, ptr %134, align 4
  %135 = load i32, ptr %19, align 4
  %136 = load ptr, ptr %8, align 8
  %137 = getelementptr inbounds %struct._OGLSDOps, ptr %136, i32 0, i32 12
  store i32 %135, ptr %137, align 8
  %138 = load i32, ptr %20, align 4
  %139 = load ptr, ptr %8, align 8
  %140 = getelementptr inbounds %struct._OGLSDOps, ptr %139, i32 0, i32 13
  store i32 %138, ptr %140, align 4
  %141 = load i32, ptr %14, align 4
  %142 = load ptr, ptr %8, align 8
  %143 = getelementptr inbounds %struct._OGLSDOps, ptr %142, i32 0, i32 14
  store i32 %141, ptr %143, align 8
  br label %144

144:                                              ; preds = %107
  %145 = load ptr, ptr @j2d_glTexParameteri, align 8
  %146 = load ptr, ptr %8, align 8
  %147 = getelementptr inbounds %struct._OGLSDOps, ptr %146, i32 0, i32 14
  %148 = load i32, ptr %147, align 8
  call void %145(i32 noundef %148, i32 noundef 10240, i32 noundef 9728)
  %149 = load ptr, ptr @j2d_glTexParameteri, align 8
  %150 = load ptr, ptr %8, align 8
  %151 = getelementptr inbounds %struct._OGLSDOps, ptr %150, i32 0, i32 14
  %152 = load i32, ptr %151, align 8
  call void %149(i32 noundef %152, i32 noundef 10241, i32 noundef 9728)
  %153 = load ptr, ptr %8, align 8
  %154 = getelementptr inbounds %struct._OGLSDOps, ptr %153, i32 0, i32 15
  store i32 9728, ptr %154, align 4
  br label %155

155:                                              ; preds = %144
  br label %156

156:                                              ; preds = %155
  %157 = load ptr, ptr @j2d_glTexParameteri, align 8
  %158 = load i32, ptr %14, align 4
  call void %157(i32 noundef %158, i32 noundef 10242, i32 noundef 33071)
  %159 = load ptr, ptr @j2d_glTexParameteri, align 8
  %160 = load i32, ptr %14, align 4
  call void %159(i32 noundef %160, i32 noundef 10243, i32 noundef 33071)
  br label %161

161:                                              ; preds = %156
  store i8 1, ptr %7, align 1
  br label %162

162:                                              ; preds = %161, %104, %84, %26
  %163 = load i8, ptr %7, align 1
  ret i8 %163
}