; Function Attrs: nounwind uwtable
define internal fastcc zeroext range(i8 0, 2) i8 @OGLSD_InitTextureObject(ptr nocapture noundef %0, i8 noundef zeroext %1, i8 noundef zeroext %2, i8 noundef zeroext %3, i32 noundef %4, i32 noundef %5) unnamed_addr #1 {
  %7 = alloca i32, align 4
  %8 = alloca i32, align 4
  %9 = alloca i32, align 4
  %10 = alloca i32, align 4
  %.not = icmp eq i8 %2, 0
  br i1 %.not, label %16, label %11

11:                                               ; preds = %6
  %12 = load ptr, ptr @j2d_glGetIntegerv, align 8
  call void %12(i32 noundef 3379, ptr noundef nonnull %10) #3
  %13 = load i32, ptr %10, align 4
  %.not61 = icmp slt i32 %13, %4
  %14 = select i1 %.not61, i32 0, i32 %4
  %.not62 = icmp slt i32 %13, %5
  %15 = select i1 %.not62, i32 0, i32 %5
  br label %OGLSD_NextPowerOfTwo.exit69

16:                                               ; preds = %6
  %.not58 = icmp eq i8 %3, 0
  %17 = load ptr, ptr @j2d_glGetIntegerv, align 8
  br i1 %.not58, label %22, label %18

18:                                               ; preds = %16
  call void %17(i32 noundef 34040, ptr noundef nonnull %10) #3
  %19 = load i32, ptr %10, align 4
  %.not59 = icmp slt i32 %19, %4
  %20 = select i1 %.not59, i32 0, i32 %4
  %.not60 = icmp slt i32 %19, %5
  %21 = select i1 %.not60, i32 0, i32 %5
  br label %OGLSD_NextPowerOfTwo.exit69

22:                                               ; preds = %16
  call void %17(i32 noundef 3379, ptr noundef nonnull %10) #3
  %23 = load i32, ptr %10, align 4
  %24 = icmp slt i32 %23, %4
  br i1 %24, label %OGLSD_NextPowerOfTwo.exit, label %.preheader.i

.preheader.i:                                     ; preds = %22, %.preheader.i
  %.0.i = phi i32 [ %26, %.preheader.i ], [ 1, %22 ]
  %25 = icmp slt i32 %.0.i, %4
  %26 = shl nsw i32 %.0.i, 1
  br i1 %25, label %.preheader.i, label %OGLSD_NextPowerOfTwo.exit, !llvm.loop !6

OGLSD_NextPowerOfTwo.exit:                        ; preds = %.preheader.i, %22
  %.07.i = phi i32 [ 0, %22 ], [ %.0.i, %.preheader.i ]
  %27 = icmp slt i32 %23, %5
  br i1 %27, label %OGLSD_NextPowerOfTwo.exit69.thread, label %.preheader.i66

.preheader.i66:                                   ; preds = %OGLSD_NextPowerOfTwo.exit, %.preheader.i66
  %.0.i67 = phi i32 [ %29, %.preheader.i66 ], [ 1, %OGLSD_NextPowerOfTwo.exit ]
  %28 = icmp slt i32 %.0.i67, %5
  %29 = shl nsw i32 %.0.i67, 1
  br i1 %28, label %.preheader.i66, label %OGLSD_NextPowerOfTwo.exit69, !llvm.loop !6

OGLSD_NextPowerOfTwo.exit69:                      ; preds = %.preheader.i66, %18, %11
  %.056 = phi i32 [ 32868, %11 ], [ 34039, %18 ], [ 32868, %.preheader.i66 ]
  %.055 = phi i32 [ 3553, %11 ], [ 34037, %18 ], [ 3553, %.preheader.i66 ]
  %.053 = phi i32 [ %14, %11 ], [ %20, %18 ], [ %.07.i, %.preheader.i66 ]
  %.0 = phi i32 [ %15, %11 ], [ %21, %18 ], [ %.0.i67, %.preheader.i66 ]
  %30 = icmp eq i32 %.053, 0
  %31 = icmp eq i32 %.0, 0
  %or.cond = select i1 %30, i1 true, i1 %31
  br i1 %or.cond, label %OGLSD_NextPowerOfTwo.exit69.thread, label %32

OGLSD_NextPowerOfTwo.exit69.thread:               ; preds = %OGLSD_NextPowerOfTwo.exit, %OGLSD_NextPowerOfTwo.exit69
  call void (i32, i8, ptr, ...) @J2dTraceImpl(i32 noundef 1, i8 noundef zeroext 1, ptr noundef nonnull @.str.21) #3
  br label %60

32:                                               ; preds = %OGLSD_NextPowerOfTwo.exit69
  %33 = load ptr, ptr @j2d_glTexImage2D, align 8
  call void %33(i32 noundef %.056, i32 noundef 0, i32 noundef 6408, i32 noundef %.053, i32 noundef %.0, i32 noundef 0, i32 noundef 6408, i32 noundef 32821, ptr noundef null) #3
  %34 = load ptr, ptr @j2d_glGetTexLevelParameteriv, align 8
  call void %34(i32 noundef %.056, i32 noundef 0, i32 noundef 4096, ptr noundef nonnull %8) #3
  %35 = load ptr, ptr @j2d_glGetTexLevelParameteriv, align 8
  call void %35(i32 noundef %.056, i32 noundef 0, i32 noundef 4097, ptr noundef nonnull %9) #3
  %36 = load i32, ptr %8, align 4
  %.not63 = icmp eq i32 %36, %.053
  %37 = load i32, ptr %9, align 4
  %.not64 = icmp eq i32 %37, %.0
  %or.cond65 = select i1 %.not63, i1 %.not64, i1 false
  br i1 %or.cond65, label %39, label %38

38:                                               ; preds = %32
  call void (i32, i8, ptr, ...) @J2dTraceImpl(i32 noundef 1, i8 noundef zeroext 1, ptr noundef nonnull @.str.22, i32 noundef %36, i32 noundef %37) #3
  br label %60

39:                                               ; preds = %32
  %40 = load ptr, ptr @j2d_glGenTextures, align 8
  call void %40(i32 noundef 1, ptr noundef nonnull %7) #3
  %41 = load ptr, ptr @j2d_glBindTexture, align 8
  %42 = load i32, ptr %7, align 4
  call void %41(i32 noundef %.055, i32 noundef %42) #3
  %43 = load ptr, ptr @j2d_glTexImage2D, align 8
  call void %43(i32 noundef %.055, i32 noundef 0, i32 noundef 6408, i32 noundef %.053, i32 noundef %.0, i32 noundef 0, i32 noundef 6408, i32 noundef 32821, ptr noundef null) #3
  %44 = getelementptr inbounds i8, ptr %0, i64 80
  store i8 %1, ptr %44, align 8
  %45 = getelementptr inbounds i8, ptr %0, i64 84
  store i32 0, ptr %45, align 4
  %46 = getelementptr inbounds i8, ptr %0, i64 88
  store i32 0, ptr %46, align 8
  %47 = getelementptr inbounds i8, ptr %0, i64 92
  store i32 %4, ptr %47, align 4
  %48 = getelementptr inbounds i8, ptr %0, i64 96
  store i32 %5, ptr %48, align 8
  %49 = load i32, ptr %7, align 4
  %50 = getelementptr inbounds i8, ptr %0, i64 100
  store i32 %49, ptr %50, align 4
  %51 = getelementptr inbounds i8, ptr %0, i64 104
  store i32 %.053, ptr %51, align 8
  %52 = getelementptr inbounds i8, ptr %0, i64 108
  store i32 %.0, ptr %52, align 4
  %53 = getelementptr inbounds i8, ptr %0, i64 112
  store i32 %.055, ptr %53, align 8
  %54 = load ptr, ptr @j2d_glTexParameteri, align 8
  call void %54(i32 noundef %.055, i32 noundef 10240, i32 noundef 9728) #3
  %55 = load ptr, ptr @j2d_glTexParameteri, align 8
  %56 = load i32, ptr %53, align 8
  call void %55(i32 noundef %56, i32 noundef 10241, i32 noundef 9728) #3
  %57 = getelementptr inbounds i8, ptr %0, i64 116
  store i32 9728, ptr %57, align 4
  %58 = load ptr, ptr @j2d_glTexParameteri, align 8
  call void %58(i32 noundef %.055, i32 noundef 10242, i32 noundef 33071) #3
  %59 = load ptr, ptr @j2d_glTexParameteri, align 8
  call void %59(i32 noundef %.055, i32 noundef 10243, i32 noundef 33071) #3
  br label %60

60:                                               ; preds = %39, %38, %OGLSD_NextPowerOfTwo.exit69.thread
  %.054 = phi i8 [ 0, %OGLSD_NextPowerOfTwo.exit69.thread ], [ 0, %38 ], [ 1, %39 ]
  ret i8 %.054
}